; Function Attrs: mustprogress uwtable
define void @_ZNK5arrow3ipc21DictionaryFieldMapper10GetFieldIdESt6vectorIiSaIiEE(ptr dead_on_unwind noalias writable sret(%"class.arrow::Result") align 8 %0, ptr noundef nonnull readonly align 8 captures(none) dereferenceable(8) %1, ptr noundef captures(none) %2) local_unnamed_addr #1 align 2 personality ptr @__gxx_personality_v0 {
  %4 = alloca %"class.std::vector", align 8
  %5 = load ptr, ptr %1, align 8, !tbaa !42
  %6 = load ptr, ptr %2, align 8, !tbaa !62
  store ptr %6, ptr %4, align 8, !tbaa !62
  %7 = getelementptr inbounds nuw i8, ptr %4, i64 8
  %8 = getelementptr inbounds nuw i8, ptr %2, i64 8
  %9 = load ptr, ptr %8, align 8, !tbaa !77
  store ptr %9, ptr %7, align 8, !tbaa !77
  %10 = getelementptr inbounds nuw i8, ptr %4, i64 16
  %11 = getelementptr inbounds nuw i8, ptr %2, i64 16
  %12 = load ptr, ptr %11, align 8, !tbaa !65
  store ptr %12, ptr %10, align 8, !tbaa !65
  tail call void @llvm.memset.p0.i64(ptr noundef nonnull align 8 dereferenceable(24) %2, i8 0, i64 24, i1 false)
  invoke void @_ZNK5arrow3ipc21DictionaryFieldMapper4Impl10GetFieldIdESt6vectorIiSaIiEE(ptr dead_on_unwind writable sret(%"class.arrow::Result") align 8 %0, ptr noundef nonnull align 8 dereferenceable(56) %5, ptr noundef nonnull %4)
          to label %13 unwind label %20

13:                                               ; preds = %3
  %14 = load ptr, ptr %4, align 8, !tbaa !62
  %.not.i.i.i = icmp eq ptr %14, null
  br i1 %.not.i.i.i, label %_ZNSt6vectorIiSaIiEED2Ev.exit, label %15

15:                                               ; preds = %13
  %16 = load ptr, ptr %10, align 8, !tbaa !65
  %17 = ptrtoint ptr %16 to i64
  %18 = ptrtoint ptr %14 to i64
  %19 = sub i64 %17, %18
  call void @_ZdlPvm(ptr noundef nonnull %14, i64 noundef %19) #26
  br label %_ZNSt6vectorIiSaIiEED2Ev.exit

_ZNSt6vectorIiSaIiEED2Ev.exit:                    ; preds = %13, %15
  ret void

20:                                               ; preds = %3
  %21 = landingpad { ptr, i32 }
          cleanup
  %22 = load ptr, ptr %4, align 8, !tbaa !62
  %.not.i.i.i2 = icmp eq ptr %22, null
  br i1 %.not.i.i.i2, label %_ZNSt6vectorIiSaIiEED2Ev.exit3, label %23

23:                                               ; preds = %20
  %24 = load ptr, ptr %10, align 8, !tbaa !65
  %25 = ptrtoint ptr %24 to i64
  %26 = ptrtoint ptr %22 to i64
  %27 = sub i64 %25, %26
  call void @_ZdlPvm(ptr noundef nonnull %22, i64 noundef %27) #26
  br label %_ZNSt6vectorIiSaIiEED2Ev.exit3

_ZNSt6vectorIiSaIiEED2Ev.exit3:                   ; preds = %20, %23
  resume { ptr, i32 } %21
}